target datalayout = "e-m:e-p270:32:32-p271:32:32-p272:64:64-i64:64-i128:128-f80:128-n8:16:32:64-S128"
target triple = "x86_64-unknown-linux-gnu"

%struct.UCaseContext = type { ptr, i32, i32, i32, i32, i32, i8, i8, i8, i8 }

; Function Attrs: mustprogress uwtable
define linkonce_odr noundef i32 @_ZNK6icu_7511Replaceable8char32AtEi(ptr noundef nonnull align 8 dereferenceable(8) %this, i32 noundef %offset) #0 comdat align 2 {
entry:
  %this.addr = alloca ptr, align 8
  %offset.addr = alloca i32, align 4
  store ptr %this, ptr %this.addr, align 8
  store i32 %offset, ptr %offset.addr, align 4
  %this1 = load ptr, ptr %this.addr, align 8
  %0 = load i32, ptr %offset.addr, align 4
  %vtable = load ptr, ptr %this1, align 8
  %vfn = getelementptr inbounds ptr, ptr %vtable, i64 10
  %1 = load ptr, ptr %vfn, align 8
  %call = call noundef i32 %1(ptr noundef nonnull align 8 dereferenceable(8) %this1, i32 noundef %0)
  ret i32 %call
}

; Function Attrs: mustprogress uwtable
define i32 @utrans_rep_caseContextIterator_75(ptr noundef %context, i8 noundef signext %dir) #0 {
entry:
  %retval = alloca i32, align 4
  %context.addr = alloca ptr, align 8
  %dir.addr = alloca i8, align 1
  %csc = alloca ptr, align 8
  %rep = alloca ptr, align 8
  %c = alloca i32, align 4
  store ptr %context, ptr %context.addr, align 8
  store i8 %dir, ptr %dir.addr, align 1
  %0 = load ptr, ptr %context.addr, align 8
  store ptr %0, ptr %csc, align 8
  %1 = load ptr, ptr %csc, align 8
  %p = getelementptr inbounds %struct.UCaseContext, ptr %1, i32 0, i32 0
  %2 = load ptr, ptr %p, align 8
  store ptr %2, ptr %rep, align 8
  %3 = load i8, ptr %dir.addr, align 1
  %conv = sext i8 %3 to i32
  %cmp = icmp slt i32 %conv, 0
  br i1 %cmp, label %if.then, label %if.else

if.then:                                          ; preds = %entry
  %4 = load ptr, ptr %csc, align 8
  %cpStart = getelementptr inbounds %struct.UCaseContext, ptr %4, i32 0, i32 4
  %5 = load i32, ptr %cpStart, align 4
  %6 = load ptr, ptr %csc, align 8
  %index = getelementptr inbounds %struct.UCaseContext, ptr %6, i32 0, i32 2
  store i32 %5, ptr %index, align 4
  %7 = load i8, ptr %dir.addr, align 1
  %8 = load ptr, ptr %csc, align 8
  %dir1 = getelementptr inbounds %struct.UCaseContext, ptr %8, i32 0, i32 6
  store i8 %7, ptr %dir1, align 4
  br label %if.end9

if.else:                                          ; preds = %entry
  %9 = load i8, ptr %dir.addr, align 1
  %conv2 = sext i8 %9 to i32
  %cmp3 = icmp sgt i32 %conv2, 0
  br i1 %cmp3, label %if.then4, label %if.else7

if.then4:                                         ; preds = %if.else
  %10 = load ptr, ptr %csc, align 8
  %cpLimit = getelementptr inbounds %struct.UCaseContext, ptr %10, i32 0, i32 5
  %11 = load i32, ptr %cpLimit, align 8
  %12 = load ptr, ptr %csc, align 8
  %index5 = getelementptr inbounds %struct.UCaseContext, ptr %12, i32 0, i32 2
  store i32 %11, ptr %index5, align 4
  %13 = load i8, ptr %dir.addr, align 1
  %14 = load ptr, ptr %csc, align 8
  %dir6 = getelementptr inbounds %struct.UCaseContext, ptr %14, i32 0, i32 6
  store i8 %13, ptr %dir6, align 4
  br label %if.end

if.else7:                                         ; preds = %if.else
  %15 = load ptr, ptr %csc, align 8
  %dir8 = getelementptr inbounds %struct.UCaseContext, ptr %15, i32 0, i32 6
  %16 = load i8, ptr %dir8, align 4
  store i8 %16, ptr %dir.addr, align 1
  br label %if.end

if.end:                                           ; preds = %if.else7, %if.then4
  br label %if.end9

if.end9:                                          ; preds = %if.end, %if.then
  %17 = load i8, ptr %dir.addr, align 1
  %conv10 = sext i8 %17 to i32
  %cmp11 = icmp slt i32 %conv10, 0
  br i1 %cmp11, label %if.then12, label %if.else27

if.then12:                                        ; preds = %if.end9
  %18 = load ptr, ptr %csc, align 8
  %start = getelementptr inbounds %struct.UCaseContext, ptr %18, i32 0, i32 1
  %19 = load i32, ptr %start, align 8
  %20 = load ptr, ptr %csc, align 8
  %index13 = getelementptr inbounds %struct.UCaseContext, ptr %20, i32 0, i32 2
  %21 = load i32, ptr %index13, align 4
  %cmp14 = icmp slt i32 %19, %21
  br i1 %cmp14, label %if.then15, label %if.end26

if.then15:                                        ; preds = %if.then12
  %22 = load ptr, ptr %rep, align 8
  %23 = load ptr, ptr %csc, align 8
  %index16 = getelementptr inbounds %struct.UCaseContext, ptr %23, i32 0, i32 2
  %24 = load i32, ptr %index16, align 4
  %sub = sub nsw i32 %24, 1
  %call = call noundef i32 @_ZNK6icu_7511Replaceable8char32AtEi(ptr noundef nonnull align 8 dereferenceable(8) %22, i32 noundef %sub)
  store i32 %call, ptr %c, align 4
  %25 = load i32, ptr %c, align 4
  %cmp17 = icmp slt i32 %25, 0
  br i1 %cmp17, label %if.then18, label %if.else21

if.then18:                                        ; preds = %if.then15
  %26 = load ptr, ptr %csc, align 8
  %index19 = getelementptr inbounds %struct.UCaseContext, ptr %26, i32 0, i32 2
  %27 = load i32, ptr %index19, align 4
  %28 = load ptr, ptr %csc, align 8
  %start20 = getelementptr inbounds %struct.UCaseContext, ptr %28, i32 0, i32 1
  store i32 %27, ptr %start20, align 8
  br label %if.end25

if.else21:                                        ; preds = %if.then15
  %29 = load i32, ptr %c, align 4
  %cmp22 = icmp ule i32 %29, 65535
  %cond = select i1 %cmp22, i32 1, i32 2
  %30 = load ptr, ptr %csc, align 8
  %index23 = getelementptr inbounds %struct.UCaseContext, ptr %30, i32 0, i32 2
  %31 = load i32, ptr %index23, align 4
  %sub24 = sub nsw i32 %31, %cond
  store i32 %sub24, ptr %index23, align 4
  %32 = load i32, ptr %c, align 4
  store i32 %32, ptr %retval, align 4
  br label %return

if.end25:                                         ; preds = %if.then18
  br label %if.end26

if.end26:                                         ; preds = %if.end25, %if.then12
  br label %if.end45

if.else27:                                        ; preds = %if.end9
  %33 = load ptr, ptr %csc, align 8
  %index28 = getelementptr inbounds %struct.UCaseContext, ptr %33, i32 0, i32 2
  %34 = load i32, ptr %index28, align 4
  %35 = load ptr, ptr %csc, align 8
  %limit = getelementptr inbounds %struct.UCaseContext, ptr %35, i32 0, i32 3
  %36 = load i32, ptr %limit, align 8
  %cmp29 = icmp slt i32 %34, %36
  br i1 %cmp29, label %if.then30, label %if.else42

if.then30:                                        ; preds = %if.else27
  %37 = load ptr, ptr %rep, align 8
  %38 = load ptr, ptr %csc, align 8
  %index31 = getelementptr inbounds %struct.UCaseContext, ptr %38, i32 0, i32 2
  %39 = load i32, ptr %index31, align 4
  %call32 = call noundef i32 @_ZNK6icu_7511Replaceable8char32AtEi(ptr noundef nonnull align 8 dereferenceable(8) %37, i32 noundef %39)
  store i32 %call32, ptr %c, align 4
  %40 = load i32, ptr %c, align 4
  %cmp33 = icmp slt i32 %40, 0
  br i1 %cmp33, label %if.then34, label %if.else37

if.then34:                                        ; preds = %if.then30
  %41 = load ptr, ptr %csc, align 8
  %index35 = getelementptr inbounds %struct.UCaseContext, ptr %41, i32 0, i32 2
  %42 = load i32, ptr %index35, align 4
  %43 = load ptr, ptr %csc, align 8
  %limit36 = getelementptr inbounds %struct.UCaseContext, ptr %43, i32 0, i32 3
  store i32 %42, ptr %limit36, align 8
  %44 = load ptr, ptr %csc, align 8
  %b1 = getelementptr inbounds %struct.UCaseContext, ptr %44, i32 0, i32 7
  store i8 1, ptr %b1, align 1
  br label %if.end41

if.else37:                                        ; preds = %if.then30
  %45 = load i32, ptr %c, align 4
  %cmp38 = icmp ule i32 %45, 65535
  %cond39 = select i1 %cmp38, i32 1, i32 2
  %46 = load ptr, ptr %csc, align 8
  %index40 = getelementptr inbounds %struct.UCaseContext, ptr %46, i32 0, i32 2
  %47 = load i32, ptr %index40, align 4
  %add = add nsw i32 %47, %cond39
  store i32 %add, ptr %index40, align 4
  %48 = load i32, ptr %c, align 4
  store i32 %48, ptr %retval, align 4
  br label %return

if.end41:                                         ; preds = %if.then34
  br label %if.end44

if.else42:                                        ; preds = %if.else27
  %49 = load ptr, ptr %csc, align 8
  %b143 = getelementptr inbounds %struct.UCaseContext, ptr %49, i32 0, i32 7
  store i8 1, ptr %b143, align 1
  br label %if.end44

if.end44:                                         ; preds = %if.else42, %if.end41
  br label %if.end45

if.end45:                                         ; preds = %if.end44, %if.end26
  store i32 -1, ptr %retval, align 4
  br label %return

return:                                           ; preds = %if.end45, %if.else37, %if.else21
  %50 = load i32, ptr %retval, align 4
  ret i32 %50
}