; Function Attrs: mustprogress uwtable
define noundef i32 @utrans_rep_caseContextIterator_75(ptr nocapture noundef %context, i8 noundef signext %dir) #0 {
entry:
  %0 = load ptr, ptr %context, align 8
  %cmp = icmp slt i8 %dir, 0
  br i1 %cmp, label %if.then, label %if.else

if.then:                                          ; preds = %entry
  %cpStart = getelementptr inbounds i8, ptr %context, i64 20
  %1 = load i32, ptr %cpStart, align 4
  %index = getelementptr inbounds i8, ptr %context, i64 12
  store i32 %1, ptr %index, align 4
  %dir1 = getelementptr inbounds i8, ptr %context, i64 28
  store i8 %dir, ptr %dir1, align 4
  br label %if.then12

if.else:                                          ; preds = %entry
  %cmp3.not = icmp eq i8 %dir, 0
  br i1 %cmp3.not, label %if.else7, label %if.then4

if.then4:                                         ; preds = %if.else
  %cpLimit = getelementptr inbounds i8, ptr %context, i64 24
  %2 = load i32, ptr %cpLimit, align 8
  %index5 = getelementptr inbounds i8, ptr %context, i64 12
  store i32 %2, ptr %index5, align 4
  %dir6 = getelementptr inbounds i8, ptr %context, i64 28
  store i8 %dir, ptr %dir6, align 4
  br label %if.else27

if.else7:                                         ; preds = %if.else
  %dir8 = getelementptr inbounds i8, ptr %context, i64 28
  %3 = load i8, ptr %dir8, align 4
  %4 = icmp slt i8 %3, 0
  %index13.phi.trans.insert = getelementptr inbounds i8, ptr %context, i64 12
  %.pre36 = load i32, ptr %index13.phi.trans.insert, align 4
  br i1 %4, label %if.then12, label %if.else27

if.then12:                                        ; preds = %if.else7, %if.then
  %5 = phi i32 [ %1, %if.then ], [ %.pre36, %if.else7 ]
  %start = getelementptr inbounds i8, ptr %context, i64 8
  %6 = load i32, ptr %start, align 8
  %index13 = getelementptr inbounds i8, ptr %context, i64 12
  %cmp14 = icmp slt i32 %6, %5
  br i1 %cmp14, label %if.then15, label %return

if.then15:                                        ; preds = %if.then12
  %sub = add nsw i32 %5, -1
  %vtable.i = load ptr, ptr %0, align 8
  %vfn.i = getelementptr inbounds i8, ptr %vtable.i, i64 80
  %7 = load ptr, ptr %vfn.i, align 8
  %call.i = tail call noundef i32 %7(ptr noundef nonnull align 8 dereferenceable(8) %0, i32 noundef %sub)
  %cmp17 = icmp slt i32 %call.i, 0
  br i1 %cmp17, label %if.then18, label %if.else21

if.then18:                                        ; preds = %if.then15
  %8 = load i32, ptr %index13, align 4
  store i32 %8, ptr %start, align 8
  br label %return

if.else21:                                        ; preds = %if.then15
  %cmp22 = icmp ult i32 %call.i, 65536
  %cond.neg = select i1 %cmp22, i32 -1, i32 -2
  %9 = load i32, ptr %index13, align 4
  %sub24 = add i32 %9, %cond.neg
  store i32 %sub24, ptr %index13, align 4
  br label %return

if.else27:                                        ; preds = %if.else7, %if.then4
  %10 = phi i32 [ %2, %if.then4 ], [ %.pre36, %if.else7 ]
  %index28 = getelementptr inbounds i8, ptr %context, i64 12
  %limit = getelementptr inbounds i8, ptr %context, i64 16
  %11 = load i32, ptr %limit, align 8
  %cmp29 = icmp slt i32 %10, %11
  br i1 %cmp29, label %if.then30, label %if.else42

if.then30:                                        ; preds = %if.else27
  %vtable.i33 = load ptr, ptr %0, align 8
  %vfn.i34 = getelementptr inbounds i8, ptr %vtable.i33, i64 80
  %12 = load ptr, ptr %vfn.i34, align 8
  %call.i35 = tail call noundef i32 %12(ptr noundef nonnull align 8 dereferenceable(8) %0, i32 noundef %10)
  %cmp33 = icmp slt i32 %call.i35, 0
  br i1 %cmp33, label %if.then34, label %if.else37

if.then34:                                        ; preds = %if.then30
  %13 = load i32, ptr %index28, align 4
  store i32 %13, ptr %limit, align 8
  %b1 = getelementptr inbounds i8, ptr %context, i64 29
  store i8 1, ptr %b1, align 1
  br label %return

if.else37:                                        ; preds = %if.then30
  %cmp38 = icmp ult i32 %call.i35, 65536
  %cond39 = select i1 %cmp38, i32 1, i32 2
  %14 = load i32, ptr %index28, align 4
  %add = add nsw i32 %14, %cond39
  store i32 %add, ptr %index28, align 4
  br label %return

if.else42:                                        ; preds = %if.else27
  %b143 = getelementptr inbounds i8, ptr %context, i64 29
  store i8 1, ptr %b143, align 1
  br label %return

return:                                           ; preds = %if.then18, %if.then12, %if.else42, %if.then34, %if.else37, %if.else21
  %retval.0 = phi i32 [ %call.i, %if.else21 ], [ %call.i35, %if.else37 ], [ -1, %if.then34 ], [ -1, %if.else42 ], [ -1, %if.then12 ], [ -1, %if.then18 ]
  ret i32 %retval.0
}